target datalayout = "e-m:e-p270:32:32-p271:32:32-p272:64:64-i64:64-i128:128-f80:128-n8:16:32:64-S128"
target triple = "x86_64-pc-linux-gnu"

; Function Attrs: nounwind uwtable
define internal ptr @Pack3BytesAndSkip1SwapFirstOptimized(ptr noundef %0, ptr noundef %1, ptr noundef %2, i32 noundef %3) #0 {
  %5 = alloca ptr, align 8
  %6 = alloca ptr, align 8
  %7 = alloca ptr, align 8
  %8 = alloca i32, align 4
  store ptr %0, ptr %5, align 8
  store ptr %1, ptr %6, align 8
  store ptr %2, ptr %7, align 8
  store i32 %3, ptr %8, align 4
  %9 = load ptr, ptr %7, align 8
  %10 = getelementptr inbounds i8, ptr %9, i32 1
  store ptr %10, ptr %7, align 8
  %11 = load ptr, ptr %6, align 8
  %12 = getelementptr inbounds i16, ptr %11, i64 0
  %13 = load i16, ptr %12, align 2
  %14 = zext i16 %13 to i32
  %15 = and i32 %14, 255
  %16 = trunc i32 %15 to i8
  %17 = load ptr, ptr %7, align 8
  %18 = getelementptr inbounds i8, ptr %17, i32 1
  store ptr %18, ptr %7, align 8
  store i8 %16, ptr %17, align 1
  %19 = load ptr, ptr %6, align 8
  %20 = getelementptr inbounds i16, ptr %19, i64 1
  %21 = load i16, ptr %20, align 2
  %22 = zext i16 %21 to i32
  %23 = and i32 %22, 255
  %24 = trunc i32 %23 to i8
  %25 = load ptr, ptr %7, align 8
  %26 = getelementptr inbounds i8, ptr %25, i32 1
  store ptr %26, ptr %7, align 8
  store i8 %24, ptr %25, align 1
  %27 = load ptr, ptr %6, align 8
  %28 = getelementptr inbounds i16, ptr %27, i64 2
  %29 = load i16, ptr %28, align 2
  %30 = zext i16 %29 to i32
  %31 = and i32 %30, 255
  %32 = trunc i32 %31 to i8
  %33 = load ptr, ptr %7, align 8
  %34 = getelementptr inbounds i8, ptr %33, i32 1
  store ptr %34, ptr %7, align 8
  store i8 %32, ptr %33, align 1
  %35 = load ptr, ptr %7, align 8
  ret ptr %35
}