; Function Attrs: mustprogress nofree norecurse nosync nounwind willreturn memory(argmem: readwrite) uwtable
define internal nonnull ptr @Pack3BytesAndSkip1SwapFirstOptimized(ptr nocapture readnone %0, ptr nocapture noundef readonly %1, ptr noundef writeonly %2, i32 %3) #3 {
  %5 = getelementptr inbounds i8, ptr %2, i64 1
  %6 = load i16, ptr %1, align 2
  %7 = trunc i16 %6 to i8
  %8 = getelementptr inbounds i8, ptr %2, i64 2
  store i8 %7, ptr %5, align 1
  %9 = getelementptr inbounds i8, ptr %1, i64 2
  %10 = load i16, ptr %9, align 2
  %11 = trunc i16 %10 to i8
  %12 = getelementptr inbounds i8, ptr %2, i64 3
  store i8 %11, ptr %8, align 1
  %13 = getelementptr inbounds i8, ptr %1, i64 4
  %14 = load i16, ptr %13, align 2
  %15 = trunc i16 %14 to i8
  %16 = getelementptr inbounds i8, ptr %2, i64 4
  store i8 %15, ptr %12, align 1
  ret ptr %16
}